; Function Attrs: nounwind uwtable
define hidden i32 @uv__close(i32 noundef %0) local_unnamed_addr #0 {
  %2 = tail call ptr @__errno_location() #24
  %3 = load i32, ptr %2, align 4
  %4 = tail call i64 (i64, ...) @syscall(i64 noundef 3, i32 noundef %0) #23
  %5 = trunc i64 %4 to i32
  %6 = icmp eq i32 %5, -1
  br i1 %6, label %7, label %uv__close_nocheckstdio.exit

7:                                                ; preds = %1
  %8 = load i32, ptr %2, align 4
  %9 = sub nsw i32 0, %8
  %10 = icmp eq i32 %8, 4
  %11 = icmp eq i32 %8, 115
  %or.cond.i = or i1 %10, %11
  %spec.store.select.i = select i1 %or.cond.i, i32 0, i32 %9
  store i32 %3, ptr %2, align 4
  br label %uv__close_nocheckstdio.exit

uv__close_nocheckstdio.exit:                      ; preds = %1, %7
  %.0.i = phi i32 [ %spec.store.select.i, %7 ], [ %5, %1 ]
  ret i32 %.0.i
}